target datalayout = "e-m:e-p270:32:32-p271:32:32-p272:64:64-i64:64-i128:128-f80:128-n8:16:32:64-S128"
target triple = "x86_64-pc-linux-gnu"

%"class.std::__cxx11::basic_string" = type { %"struct.std::__cxx11::basic_string<char>::_Alloc_hider", i64, %union.anon }
%"struct.std::__cxx11::basic_string<char>::_Alloc_hider" = type { ptr }
%union.anon = type { i64, [8 x i8] }
%"struct.Luau::CannotExtendTable" = type { ptr, i32, %"class.std::__cxx11::basic_string" }
%"struct.Luau::InvalidNameChecker" = type { %"class.std::__cxx11::basic_string" }

; Function Attrs: mustprogress nounwind uwtable
define available_externally noundef ptr @_ZNKSt7__cxx1112basic_stringIcSt11char_traitsIcESaIcEE7_M_dataEv(ptr noundef nonnull align 8 dereferenceable(32) %0) #2 align 2 {
  %2 = alloca ptr, align 8
  store ptr %0, ptr %2, align 8, !tbaa !50
  %3 = load ptr, ptr %2, align 8
  %4 = getelementptr inbounds nuw %"class.std::__cxx11::basic_string", ptr %3, i32 0, i32 0
  %5 = getelementptr inbounds nuw %"struct.std::__cxx11::basic_string<char>::_Alloc_hider", ptr %4, i32 0, i32 0
  %6 = load ptr, ptr %5, align 8, !tbaa !614
  ret ptr %6
}

; Function Attrs: mustprogress nounwind uwtable
define linkonce_odr dso_local noundef i32 @_ZNSt11char_traitsIcE7compareEPKcS2_m(ptr noundef %0, ptr noundef %1, i64 noundef %2) #2 comdat align 2 {
  %4 = alloca i32, align 4
  %5 = alloca ptr, align 8
  %6 = alloca ptr, align 8
  %7 = alloca i64, align 8
  store ptr %0, ptr %5, align 8, !tbaa !11
  store ptr %1, ptr %6, align 8, !tbaa !11
  store i64 %2, ptr %7, align 8, !tbaa !36
  %8 = load i64, ptr %7, align 8, !tbaa !36
  %9 = icmp eq i64 %8, 0
  br i1 %9, label %10, label %11

10:                                               ; preds = %3
  store i32 0, ptr %4, align 4
  br label %16

11:                                               ; preds = %3
  %12 = load ptr, ptr %5, align 8, !tbaa !11
  %13 = load ptr, ptr %6, align 8, !tbaa !11
  %14 = load i64, ptr %7, align 8, !tbaa !36
  %15 = call i32 @memcmp(ptr noundef %12, ptr noundef %13, i64 noundef %14) #5
  store i32 %15, ptr %4, align 4
  br label %16

16:                                               ; preds = %11, %10
  %17 = load i32, ptr %4, align 4
  ret i32 %17
}

; Function Attrs: mustprogress nounwind uwtable
define available_externally noundef ptr @_ZNKSt7__cxx1112basic_stringIcSt11char_traitsIcESaIcEE4dataEv(ptr noundef nonnull align 8 dereferenceable(32) %0) #2 align 2 {
  %2 = alloca ptr, align 8
  store ptr %0, ptr %2, align 8, !tbaa !50
  %3 = load ptr, ptr %2, align 8
  %4 = call noundef ptr @_ZNKSt7__cxx1112basic_stringIcSt11char_traitsIcESaIcEE7_M_dataEv(ptr noundef nonnull align 8 dereferenceable(32) %3)
  ret ptr %4
}

; Function Attrs: mustprogress nounwind uwtable
define available_externally noundef i64 @_ZNKSt7__cxx1112basic_stringIcSt11char_traitsIcESaIcEE4sizeEv(ptr noundef nonnull align 8 dereferenceable(32) %0) #2 align 2 {
  %2 = alloca ptr, align 8
  store ptr %0, ptr %2, align 8, !tbaa !50
  %3 = load ptr, ptr %2, align 8
  %4 = getelementptr inbounds nuw %"class.std::__cxx11::basic_string", ptr %3, i32 0, i32 1
  %5 = load i64, ptr %4, align 8, !tbaa !613
  ret i64 %5
}

; Function Attrs: inlinehint mustprogress nounwind uwtable
define linkonce_odr dso_local noundef zeroext i1 @_ZSteqIcEN9__gnu_cxx11__enable_ifIXsr9__is_charIT_EE7__valueEbE6__typeERKNSt7__cxx1112basic_stringIS2_St11char_traitsIS2_ESaIS2_EEESC_(ptr noundef nonnull align 8 dereferenceable(32) %0, ptr noundef nonnull align 8 dereferenceable(32) %1) #4 comdat {
  %3 = alloca ptr, align 8
  %4 = alloca ptr, align 8
  store ptr %0, ptr %3, align 8, !tbaa !50
  store ptr %1, ptr %4, align 8, !tbaa !50
  %5 = load ptr, ptr %3, align 8, !tbaa !50
  %6 = call noundef i64 @_ZNKSt7__cxx1112basic_stringIcSt11char_traitsIcESaIcEE4sizeEv(ptr noundef nonnull align 8 dereferenceable(32) %5) #5
  %7 = load ptr, ptr %4, align 8, !tbaa !50
  %8 = call noundef i64 @_ZNKSt7__cxx1112basic_stringIcSt11char_traitsIcESaIcEE4sizeEv(ptr noundef nonnull align 8 dereferenceable(32) %7) #5
  %9 = icmp eq i64 %6, %8
  br i1 %9, label %10, label %20

10:                                               ; preds = %2
  %11 = load ptr, ptr %3, align 8, !tbaa !50
  %12 = call noundef ptr @_ZNKSt7__cxx1112basic_stringIcSt11char_traitsIcESaIcEE4dataEv(ptr noundef nonnull align 8 dereferenceable(32) %11) #5
  %13 = load ptr, ptr %4, align 8, !tbaa !50
  %14 = call noundef ptr @_ZNKSt7__cxx1112basic_stringIcSt11char_traitsIcESaIcEE4dataEv(ptr noundef nonnull align 8 dereferenceable(32) %13) #5
  %15 = load ptr, ptr %3, align 8, !tbaa !50
  %16 = call noundef i64 @_ZNKSt7__cxx1112basic_stringIcSt11char_traitsIcESaIcEE4sizeEv(ptr noundef nonnull align 8 dereferenceable(32) %15) #5
  %17 = call noundef i32 @_ZNSt11char_traitsIcE7compareEPKcS2_m(ptr noundef %12, ptr noundef %14, i64 noundef %16)
  %18 = icmp ne i32 %17, 0
  %19 = xor i1 %18, true
  br label %20

20:                                               ; preds = %10, %2
  %21 = phi i1 [ false, %2 ], [ %19, %10 ]
  ret i1 %21
}

; Function Attrs: mustprogress nounwind uwtable
define linkonce_odr dso_local noundef zeroext i1 @_ZNK4Luau18InvalidNameCheckerclERKNS_17CannotExtendTableE(ptr noundef nonnull align 8 dereferenceable(32) %0, ptr noundef nonnull align 8 dereferenceable(48) %1) #2 comdat align 2 {
  %3 = alloca ptr, align 8
  %4 = alloca ptr, align 8
  store ptr %0, ptr %3, align 8, !tbaa !374
  store ptr %1, ptr %4, align 8, !tbaa !105
  %5 = load ptr, ptr %3, align 8
  %6 = load ptr, ptr %4, align 8, !tbaa !105
  %7 = getelementptr inbounds nuw %"struct.Luau::CannotExtendTable", ptr %6, i32 0, i32 2
  %8 = getelementptr inbounds nuw %"struct.Luau::InvalidNameChecker", ptr %5, i32 0, i32 0
  %9 = call noundef zeroext i1 @_ZSteqIcEN9__gnu_cxx11__enable_ifIXsr9__is_charIT_EE7__valueEbE6__typeERKNSt7__cxx1112basic_stringIS2_St11char_traitsIS2_ESaIS2_EEESC_(ptr noundef nonnull align 8 dereferenceable(32) %7, ptr noundef nonnull align 8 dereferenceable(32) %8) #5
  ret i1 %9
}

; Function Attrs: mustprogress uwtable
define internal void @_ZN4LuauL8fnVisitRINS_18InvalidNameCheckerEbKNS_17CannotExtendTableEEEvRT_RT0_PNSt11conditionalIXsr3stdE10is_const_vIT1_EEKvvE4typeE(ptr noundef nonnull align 8 dereferenceable(32) %0, ptr noundef nonnull align 1 dereferenceable(1) %1, ptr noundef %2) #3 {
  %4 = alloca ptr, align 8
  %5 = alloca ptr, align 8
  %6 = alloca ptr, align 8
  store ptr %0, ptr %4, align 8, !tbaa !374
  store ptr %1, ptr %5, align 8, !tbaa !859
  store ptr %2, ptr %6, align 8, !tbaa !233
  %7 = load ptr, ptr %4, align 8, !tbaa !374
  %8 = load ptr, ptr %6, align 8, !tbaa !233
  %9 = call noundef zeroext i1 @_ZNK4Luau18InvalidNameCheckerclERKNS_17CannotExtendTableE(ptr noundef nonnull align 8 dereferenceable(32) %7, ptr noundef nonnull align 8 dereferenceable(48) %8)
  %10 = load ptr, ptr %5, align 8, !tbaa !859
  %11 = zext i1 %9 to i8
  store i8 %11, ptr %10, align 1, !tbaa !13
  ret void
}