; Function Attrs: mustprogress nofree nounwind willreturn memory(read, argmem: readwrite, inaccessiblemem: none) uwtable
define internal void @_ZN4LuauL8fnVisitRINS_18InvalidNameCheckerEbKNS_17CannotExtendTableEEEvRT_RT0_PNSt11conditionalIXsr3stdE10is_const_vIT1_EEKvvE4typeE(ptr noundef nonnull readonly align 8 captures(none) dereferenceable(32) %0, ptr noundef nonnull writeonly align 1 captures(none) dereferenceable(1) initializes((0, 1)) %1, ptr noundef readonly captures(none) %2) #25 {
  %4 = getelementptr inbounds nuw i8, ptr %2, i64 16
  %5 = getelementptr inbounds nuw i8, ptr %2, i64 24
  %6 = load i64, ptr %5, align 8, !tbaa !23
  %7 = getelementptr inbounds nuw i8, ptr %0, i64 8
  %8 = load i64, ptr %7, align 8, !tbaa !23
  %9 = icmp eq i64 %6, %8
  br i1 %9, label %10, label %_ZNK4Luau18InvalidNameCheckerclERKNS_17CannotExtendTableE.exit

10:                                               ; preds = %3
  %11 = icmp eq i64 %6, 0
  br i1 %11, label %_ZNK4Luau18InvalidNameCheckerclERKNS_17CannotExtendTableE.exit, label %12

12:                                               ; preds = %10
  %13 = load ptr, ptr %0, align 8, !tbaa !19
  %14 = load ptr, ptr %4, align 8, !tbaa !19
  %bcmp.i.i = tail call i32 @bcmp(ptr %14, ptr %13, i64 %6)
  %15 = icmp eq i32 %bcmp.i.i, 0
  %16 = zext i1 %15 to i8
  br label %_ZNK4Luau18InvalidNameCheckerclERKNS_17CannotExtendTableE.exit

_ZNK4Luau18InvalidNameCheckerclERKNS_17CannotExtendTableE.exit: ; preds = %3, %10, %12
  %17 = phi i8 [ 0, %3 ], [ %16, %12 ], [ 1, %10 ]
  store i8 %17, ptr %1, align 1, !tbaa !243
  ret void
}